; Function Attrs: mustprogress uwtable
define noundef nonnull align 8 dereferenceable(24) ptr @_ZNK8QuantLib32VolatilityBumpInstrumentJacobian21getAllOnePercentBumpsEv(ptr noundef nonnull align 8 dereferenceable(192) %this) local_unnamed_addr #3 align 2 personality ptr @__gxx_personality_v0 {
entry:
  %agg.tmp.ensured = alloca %"class.std::vector.27", align 8
  %allComputed_ = getelementptr inbounds nuw i8, ptr %this, i64 112
  %0 = load i8, ptr %allComputed_, align 8, !tbaa !53, !range !79, !noundef !80
  %loadedv = trunc nuw i8 %0 to i1
  br i1 %loadedv, label %if.end, label %for.cond.preheader

for.cond.preheader:                               ; preds = %entry
  %swaptions_ = getelementptr inbounds nuw i8, ptr %this, i64 48
  %_M_finish.i = getelementptr inbounds nuw i8, ptr %this, i64 56
  %caps_ = getelementptr inbounds nuw i8, ptr %this, i64 72
  %_M_finish.i3 = getelementptr inbounds nuw i8, ptr %this, i64 80
  %1 = load ptr, ptr %_M_finish.i, align 8, !tbaa !21
  %2 = load ptr, ptr %swaptions_, align 8, !tbaa !23
  %sub.ptr.lhs.cast.i8 = ptrtoint ptr %1 to i64
  %sub.ptr.rhs.cast.i9 = ptrtoint ptr %2 to i64
  %sub.ptr.sub.i10 = sub i64 %sub.ptr.lhs.cast.i8, %sub.ptr.rhs.cast.i9
  %sub.ptr.div.i11 = ashr exact i64 %sub.ptr.sub.i10, 4
  %3 = load ptr, ptr %_M_finish.i3, align 8, !tbaa !25
  %4 = load ptr, ptr %caps_, align 8, !tbaa !27
  %sub.ptr.lhs.cast.i412 = ptrtoint ptr %3 to i64
  %sub.ptr.rhs.cast.i513 = ptrtoint ptr %4 to i64
  %sub.ptr.sub.i614 = sub i64 %sub.ptr.lhs.cast.i412, %sub.ptr.rhs.cast.i513
  %sub.ptr.div.i715 = sdiv exact i64 %sub.ptr.sub.i614, 24
  %add16 = sub nsw i64 0, %sub.ptr.div.i11
  %cmp17.not = icmp eq i64 %sub.ptr.div.i715, %add16
  br i1 %cmp17.not, label %if.end, label %for.body.lr.ph

for.body.lr.ph:                                   ; preds = %for.cond.preheader
  %_M_end_of_storage.i.i = getelementptr inbounds nuw i8, ptr %agg.tmp.ensured, i64 16
  br label %for.body

for.body:                                         ; preds = %for.body.lr.ph, %_ZNSt6vectorIdSaIdEED2Ev.exit
  %i.018 = phi i64 [ 0, %for.body.lr.ph ], [ %inc, %_ZNSt6vectorIdSaIdEED2Ev.exit ]
  call void @_ZNK8QuantLib32VolatilityBumpInstrumentJacobian21derivativesVolatilityEm(ptr dead_on_unwind nonnull writable sret(%"class.std::vector.27") align 8 %agg.tmp.ensured, ptr noundef nonnull align 8 dereferenceable(192) %this, i64 noundef %i.018)
  %5 = load ptr, ptr %agg.tmp.ensured, align 8, !tbaa !34
  %tobool.not.i.i.i = icmp eq ptr %5, null
  br i1 %tobool.not.i.i.i, label %_ZNSt6vectorIdSaIdEED2Ev.exit, label %if.then.i.i.i

if.then.i.i.i:                                    ; preds = %for.body
  %6 = load ptr, ptr %_M_end_of_storage.i.i, align 8, !tbaa !36
  %sub.ptr.lhs.cast.i.i = ptrtoint ptr %6 to i64
  %sub.ptr.rhs.cast.i.i = ptrtoint ptr %5 to i64
  %sub.ptr.sub.i.i = sub i64 %sub.ptr.lhs.cast.i.i, %sub.ptr.rhs.cast.i.i
  tail call void @_ZdlPvm(ptr noundef nonnull %5, i64 noundef %sub.ptr.sub.i.i) #25
  br label %_ZNSt6vectorIdSaIdEED2Ev.exit

_ZNSt6vectorIdSaIdEED2Ev.exit:                    ; preds = %for.body, %if.then.i.i.i
  %inc = add nuw i64 %i.018, 1
  %7 = load ptr, ptr %_M_finish.i, align 8, !tbaa !21
  %8 = load ptr, ptr %swaptions_, align 8, !tbaa !23
  %sub.ptr.lhs.cast.i = ptrtoint ptr %7 to i64
  %sub.ptr.rhs.cast.i = ptrtoint ptr %8 to i64
  %sub.ptr.sub.i = sub i64 %sub.ptr.lhs.cast.i, %sub.ptr.rhs.cast.i
  %sub.ptr.div.i = ashr exact i64 %sub.ptr.sub.i, 4
  %9 = load ptr, ptr %_M_finish.i3, align 8, !tbaa !25
  %10 = load ptr, ptr %caps_, align 8, !tbaa !27
  %sub.ptr.lhs.cast.i4 = ptrtoint ptr %9 to i64
  %sub.ptr.rhs.cast.i5 = ptrtoint ptr %10 to i64
  %sub.ptr.sub.i6 = sub i64 %sub.ptr.lhs.cast.i4, %sub.ptr.rhs.cast.i5
  %sub.ptr.div.i7 = sdiv exact i64 %sub.ptr.sub.i6, 24
  %add = add nsw i64 %sub.ptr.div.i7, %sub.ptr.div.i
  %cmp = icmp ult i64 %inc, %add
  br i1 %cmp, label %for.body, label %if.end, !llvm.loop !110

if.end:                                           ; preds = %_ZNSt6vectorIdSaIdEED2Ev.exit, %for.cond.preheader, %entry
  store i8 1, ptr %allComputed_, align 8, !tbaa !53
  %bumpMatrix_ = getelementptr inbounds nuw i8, ptr %this, i64 168
  ret ptr %bumpMatrix_
}